; Function Attrs: nofree norecurse nosync nounwind memory(read, inaccessiblemem: none) uwtable
define range(i32 0, 2) i32 @Saig_StrSimIsOne(ptr noundef readonly captures(none) %0) local_unnamed_addr #0 {
  %2 = getelementptr inbounds nuw i8, ptr %0, i64 40
  %3 = load ptr, ptr %2, align 8, !tbaa !3
  br label %5

4:                                                ; preds = %5
  %indvars.iv.next = add nuw nsw i64 %indvars.iv, 1
  %exitcond.not = icmp eq i64 %indvars.iv.next, 16
  br i1 %exitcond.not, label %8, label %5, !llvm.loop !12

5:                                                ; preds = %1, %4
  %indvars.iv = phi i64 [ 0, %1 ], [ %indvars.iv.next, %4 ]
  %6 = getelementptr inbounds nuw i32, ptr %3, i64 %indvars.iv
  %7 = load i32, ptr %6, align 4, !tbaa !6
  %.not = icmp eq i32 %7, -1
  br i1 %.not, label %4, label %8

8:                                                ; preds = %4, %5
  %.05 = phi i32 [ 0, %5 ], [ 1, %4 ]
  ret i32 %.05
}